target datalayout = "e-m:e-p270:32:32-p271:32:32-p272:64:64-i64:64-i128:128-f80:128-n8:16:32:64-S128"
target triple = "x86_64-pc-linux-gnu"

%struct.stbtt__point = type { float, float }

; Function Attrs: mustprogress nounwind uwtable
define internal void @_ZL16stbtt__add_pointP12stbtt__pointiff(ptr noundef %0, i32 noundef %1, float noundef %2, float noundef %3) #1 {
  %5 = alloca ptr, align 8
  %6 = alloca i32, align 4
  %7 = alloca float, align 4
  %8 = alloca float, align 4
  store ptr %0, ptr %5, align 8
  store i32 %1, ptr %6, align 4
  store float %2, ptr %7, align 4
  store float %3, ptr %8, align 4
  %9 = load ptr, ptr %5, align 8
  %10 = icmp ne ptr %9, null
  br i1 %10, label %12, label %11

11:                                               ; preds = %4
  br label %25

12:                                               ; preds = %4
  %13 = load float, ptr %7, align 4
  %14 = load ptr, ptr %5, align 8
  %15 = load i32, ptr %6, align 4
  %16 = sext i32 %15 to i64
  %17 = getelementptr inbounds %struct.stbtt__point, ptr %14, i64 %16
  %18 = getelementptr inbounds %struct.stbtt__point, ptr %17, i32 0, i32 0
  store float %13, ptr %18, align 4
  %19 = load float, ptr %8, align 4
  %20 = load ptr, ptr %5, align 8
  %21 = load i32, ptr %6, align 4
  %22 = sext i32 %21 to i64
  %23 = getelementptr inbounds %struct.stbtt__point, ptr %20, i64 %22
  %24 = getelementptr inbounds %struct.stbtt__point, ptr %23, i32 0, i32 1
  store float %19, ptr %24, align 4
  br label %25

25:                                               ; preds = %12, %11
  ret void
}

; Function Attrs: mustprogress uwtable
define internal noundef i32 @_ZL22stbtt__tesselate_curveP12stbtt__pointPifffffffi(ptr noundef %0, ptr noundef %1, float noundef %2, float noundef %3, float noundef %4, float noundef %5, float noundef %6, float noundef %7, float noundef %8, i32 noundef %9) #0 {
  %11 = alloca i32, align 4
  %12 = alloca ptr, align 8
  %13 = alloca ptr, align 8
  %14 = alloca float, align 4
  %15 = alloca float, align 4
  %16 = alloca float, align 4
  %17 = alloca float, align 4
  %18 = alloca float, align 4
  %19 = alloca float, align 4
  %20 = alloca float, align 4
  %21 = alloca i32, align 4
  %22 = alloca float, align 4
  %23 = alloca float, align 4
  %24 = alloca float, align 4
  %25 = alloca float, align 4
  store ptr %0, ptr %12, align 8
  store ptr %1, ptr %13, align 8
  store float %2, ptr %14, align 4
  store float %3, ptr %15, align 4
  store float %4, ptr %16, align 4
  store float %5, ptr %17, align 4
  store float %6, ptr %18, align 4
  store float %7, ptr %19, align 4
  store float %8, ptr %20, align 4
  store i32 %9, ptr %21, align 4
  %26 = load float, ptr %14, align 4
  %27 = load float, ptr %16, align 4
  %28 = call float @llvm.fmuladd.f32(float 2.000000e+00, float %27, float %26)
  %29 = load float, ptr %18, align 4
  %30 = fadd float %28, %29
  %31 = fdiv float %30, 4.000000e+00
  store float %31, ptr %22, align 4
  %32 = load float, ptr %15, align 4
  %33 = load float, ptr %17, align 4
  %34 = call float @llvm.fmuladd.f32(float 2.000000e+00, float %33, float %32)
  %35 = load float, ptr %19, align 4
  %36 = fadd float %34, %35
  %37 = fdiv float %36, 4.000000e+00
  store float %37, ptr %23, align 4
  %38 = load float, ptr %14, align 4
  %39 = load float, ptr %18, align 4
  %40 = fadd float %38, %39
  %41 = fdiv float %40, 2.000000e+00
  %42 = load float, ptr %22, align 4
  %43 = fsub float %41, %42
  store float %43, ptr %24, align 4
  %44 = load float, ptr %15, align 4
  %45 = load float, ptr %19, align 4
  %46 = fadd float %44, %45
  %47 = fdiv float %46, 2.000000e+00
  %48 = load float, ptr %23, align 4
  %49 = fsub float %47, %48
  store float %49, ptr %25, align 4
  %50 = load i32, ptr %21, align 4
  %51 = icmp sgt i32 %50, 16
  br i1 %51, label %52, label %53

52:                                               ; preds = %10
  store i32 1, ptr %11, align 4
  br label %110

53:                                               ; preds = %10
  %54 = load float, ptr %24, align 4
  %55 = load float, ptr %24, align 4
  %56 = load float, ptr %25, align 4
  %57 = load float, ptr %25, align 4
  %58 = fmul float %56, %57
  %59 = call float @llvm.fmuladd.f32(float %54, float %55, float %58)
  %60 = load float, ptr %20, align 4
  %61 = fcmp ogt float %59, %60
  br i1 %61, label %62, label %99

62:                                               ; preds = %53
  %63 = load ptr, ptr %12, align 8
  %64 = load ptr, ptr %13, align 8
  %65 = load float, ptr %14, align 4
  %66 = load float, ptr %15, align 4
  %67 = load float, ptr %14, align 4
  %68 = load float, ptr %16, align 4
  %69 = fadd float %67, %68
  %70 = fdiv float %69, 2.000000e+00
  %71 = load float, ptr %15, align 4
  %72 = load float, ptr %17, align 4
  %73 = fadd float %71, %72
  %74 = fdiv float %73, 2.000000e+00
  %75 = load float, ptr %22, align 4
  %76 = load float, ptr %23, align 4
  %77 = load float, ptr %20, align 4
  %78 = load i32, ptr %21, align 4
  %79 = add nsw i32 %78, 1
  %80 = call noundef i32 @_ZL22stbtt__tesselate_curveP12stbtt__pointPifffffffi(ptr noundef %63, ptr noundef %64, float noundef %65, float noundef %66, float noundef %70, float noundef %74, float noundef %75, float noundef %76, float noundef %77, i32 noundef %79)
  %81 = load ptr, ptr %12, align 8
  %82 = load ptr, ptr %13, align 8
  %83 = load float, ptr %22, align 4
  %84 = load float, ptr %23, align 4
  %85 = load float, ptr %16, align 4
  %86 = load float, ptr %18, align 4
  %87 = fadd float %85, %86
  %88 = fdiv float %87, 2.000000e+00
  %89 = load float, ptr %17, align 4
  %90 = load float, ptr %19, align 4
  %91 = fadd float %89, %90
  %92 = fdiv float %91, 2.000000e+00
  %93 = load float, ptr %18, align 4
  %94 = load float, ptr %19, align 4
  %95 = load float, ptr %20, align 4
  %96 = load i32, ptr %21, align 4
  %97 = add nsw i32 %96, 1
  %98 = call noundef i32 @_ZL22stbtt__tesselate_curveP12stbtt__pointPifffffffi(ptr noundef %81, ptr noundef %82, float noundef %83, float noundef %84, float noundef %88, float noundef %92, float noundef %93, float noundef %94, float noundef %95, i32 noundef %97)
  br label %109

99:                                               ; preds = %53
  %100 = load ptr, ptr %12, align 8
  %101 = load ptr, ptr %13, align 8
  %102 = load i32, ptr %101, align 4
  %103 = load float, ptr %18, align 4
  %104 = load float, ptr %19, align 4
  call void @_ZL16stbtt__add_pointP12stbtt__pointiff(ptr noundef %100, i32 noundef %102, float noundef %103, float noundef %104)
  %105 = load ptr, ptr %13, align 8
  %106 = load i32, ptr %105, align 4
  %107 = add nsw i32 %106, 1
  %108 = load ptr, ptr %13, align 8
  store i32 %107, ptr %108, align 4
  br label %109

109:                                              ; preds = %99, %62
  store i32 1, ptr %11, align 4
  br label %110

110:                                              ; preds = %109, %52
  %111 = load i32, ptr %11, align 4
  ret i32 %111
}